target datalayout = "e-m:e-p270:32:32-p271:32:32-p272:64:64-i64:64-i128:128-f80:128-n8:16:32:64-S128"
target triple = "x86_64-pc-linux-gnu"

%struct.jit_State = type { %struct.GCtrace, ptr, ptr, ptr, ptr, ptr, ptr, i32, i32, i32, i8, i8, %struct.IRType1, i8, %struct.FoldState, ptr, i32, i32, i32, i32, i32, i32, i32, [1 x i32], [5 x %union.TValue], [3 x %union.TValue], ptr, i32, i32, i32, i32, ptr, ptr, i32, i32, i8, ptr, i32, i32, i16, [101 x i16], [258 x i32], [15 x i32], [16 x ptr], [64 x %struct.HotPenalty], i32, [16 x %struct.BPropEntry], i32, %struct.ScEvEntry, ptr, i32, i32, i32, ptr, i32, i32, ptr, ptr, ptr, i64, i64, %union.TValue, ptr, i32, i32 }
%struct.GCtrace = type { %struct.GCRef, i8, i8, i16, i32, i32, %struct.GCRef, ptr, i32, i32, ptr, ptr, %struct.GCRef, %struct.MRef, i32, i32, ptr, i32, i16, i16, i16, i16, i16, i16, i16, i8, i8, i8, i8 }
%struct.GCRef = type { i64 }
%struct.MRef = type { i64 }
%struct.IRType1 = type { i8 }
%struct.FoldState = type { %union.IRIns, [2 x %union.IRIns], [2 x %union.IRIns] }
%union.IRIns = type { %struct.GCRef }
%struct.HotPenalty = type { %struct.MRef, i16, i16 }
%struct.BPropEntry = type { i16, i16, i32 }
%struct.ScEvEntry = type { %struct.MRef, i16, i16, i16, i16, %struct.IRType1, i8 }
%union.TValue = type { i64 }
%struct.anon = type { i16, i16, i16, i16 }
%struct.anon.0 = type { i32, %struct.IRType1, i8, i8, i8 }

; Function Attrs: nounwind uwtable
define internal i32 @fwd_aload_reassoc(ptr noundef %0) #0 {
  %2 = alloca i32, align 4
  %3 = alloca ptr, align 8
  %4 = alloca ptr, align 8
  %5 = alloca ptr, align 8
  %6 = alloca ptr, align 8
  %7 = alloca i32, align 4
  %8 = alloca i32, align 4
  %9 = alloca ptr, align 8
  %10 = alloca i32, align 4
  store ptr %0, ptr %3, align 8, !tbaa !4
  call void @llvm.lifetime.start.p0(i64 8, ptr %4) #5
  %11 = load ptr, ptr %3, align 8, !tbaa !4
  %12 = getelementptr inbounds nuw %struct.jit_State, ptr %11, i32 0, i32 0
  %13 = getelementptr inbounds nuw %struct.GCtrace, ptr %12, i32 0, i32 7
  %14 = load ptr, ptr %13, align 8, !tbaa !14
  %15 = load ptr, ptr %3, align 8, !tbaa !4
  %16 = getelementptr inbounds nuw %struct.jit_State, ptr %15, i32 0, i32 14
  %17 = getelementptr inbounds nuw %struct.FoldState, ptr %16, i32 0, i32 0
  %18 = getelementptr inbounds nuw %struct.anon, ptr %17, i32 0, i32 0
  %19 = load i16, ptr %18, align 8, !tbaa !11
  %20 = zext i16 %19 to i64
  %21 = getelementptr inbounds nuw %union.IRIns, ptr %14, i64 %20
  store ptr %21, ptr %4, align 8, !tbaa !32
  call void @llvm.lifetime.start.p0(i64 8, ptr %5) #5
  %22 = load ptr, ptr %3, align 8, !tbaa !4
  %23 = getelementptr inbounds nuw %struct.jit_State, ptr %22, i32 0, i32 0
  %24 = getelementptr inbounds nuw %struct.GCtrace, ptr %23, i32 0, i32 7
  %25 = load ptr, ptr %24, align 8, !tbaa !14
  %26 = load ptr, ptr %4, align 8, !tbaa !32
  %27 = getelementptr inbounds nuw %struct.anon, ptr %26, i32 0, i32 1
  %28 = load i16, ptr %27, align 2, !tbaa !11
  %29 = zext i16 %28 to i64
  %30 = getelementptr inbounds nuw %union.IRIns, ptr %25, i64 %29
  store ptr %30, ptr %5, align 8, !tbaa !32
  %31 = load ptr, ptr %5, align 8, !tbaa !32
  %32 = getelementptr inbounds nuw %struct.anon.0, ptr %31, i32 0, i32 2
  %33 = load i8, ptr %32, align 1, !tbaa !11
  %34 = zext i8 %33 to i32
  %35 = icmp eq i32 %34, 41
  br i1 %35, label %36, label %159

36:                                               ; preds = %1
  %37 = load ptr, ptr %5, align 8, !tbaa !32
  %38 = getelementptr inbounds nuw %struct.anon, ptr %37, i32 0, i32 1
  %39 = load i16, ptr %38, align 2, !tbaa !11
  %40 = zext i16 %39 to i32
  %41 = icmp slt i32 %40, 32768
  br i1 %41, label %42, label %159

42:                                               ; preds = %36
  call void @llvm.lifetime.start.p0(i64 8, ptr %6) #5
  %43 = load ptr, ptr %3, align 8, !tbaa !4
  %44 = getelementptr inbounds nuw %struct.jit_State, ptr %43, i32 0, i32 0
  %45 = getelementptr inbounds nuw %struct.GCtrace, ptr %44, i32 0, i32 7
  %46 = load ptr, ptr %45, align 8, !tbaa !14
  %47 = load ptr, ptr %5, align 8, !tbaa !32
  %48 = getelementptr inbounds nuw %struct.anon, ptr %47, i32 0, i32 0
  %49 = load i16, ptr %48, align 8, !tbaa !11
  %50 = zext i16 %49 to i64
  %51 = getelementptr inbounds nuw %union.IRIns, ptr %46, i64 %50
  store ptr %51, ptr %6, align 8, !tbaa !32
  %52 = load ptr, ptr %6, align 8, !tbaa !32
  %53 = getelementptr inbounds nuw %struct.anon.0, ptr %52, i32 0, i32 2
  %54 = load i8, ptr %53, align 1, !tbaa !11
  %55 = zext i8 %54 to i32
  %56 = icmp eq i32 %55, 41
  br i1 %56, label %57, label %155

57:                                               ; preds = %42
  %58 = load ptr, ptr %6, align 8, !tbaa !32
  %59 = getelementptr inbounds nuw %struct.anon, ptr %58, i32 0, i32 1
  %60 = load i16, ptr %59, align 2, !tbaa !11
  %61 = zext i16 %60 to i32
  %62 = icmp slt i32 %61, 32768
  br i1 %62, label %63, label %155

63:                                               ; preds = %57
  %64 = load ptr, ptr %3, align 8, !tbaa !4
  %65 = getelementptr inbounds nuw %struct.jit_State, ptr %64, i32 0, i32 0
  %66 = getelementptr inbounds nuw %struct.GCtrace, ptr %65, i32 0, i32 7
  %67 = load ptr, ptr %66, align 8, !tbaa !14
  %68 = load ptr, ptr %5, align 8, !tbaa !32
  %69 = getelementptr inbounds nuw %struct.anon, ptr %68, i32 0, i32 1
  %70 = load i16, ptr %69, align 2, !tbaa !11
  %71 = zext i16 %70 to i64
  %72 = getelementptr inbounds nuw %union.IRIns, ptr %67, i64 %71
  %73 = load i32, ptr %72, align 8, !tbaa !11
  %74 = load ptr, ptr %3, align 8, !tbaa !4
  %75 = getelementptr inbounds nuw %struct.jit_State, ptr %74, i32 0, i32 0
  %76 = getelementptr inbounds nuw %struct.GCtrace, ptr %75, i32 0, i32 7
  %77 = load ptr, ptr %76, align 8, !tbaa !14
  %78 = load ptr, ptr %6, align 8, !tbaa !32
  %79 = getelementptr inbounds nuw %struct.anon, ptr %78, i32 0, i32 1
  %80 = load i16, ptr %79, align 2, !tbaa !11
  %81 = zext i16 %80 to i64
  %82 = getelementptr inbounds nuw %union.IRIns, ptr %77, i64 %81
  %83 = load i32, ptr %82, align 8, !tbaa !11
  %84 = sub nsw i32 0, %83
  %85 = icmp eq i32 %73, %84
  br i1 %85, label %86, label %155

86:                                               ; preds = %63
  call void @llvm.lifetime.start.p0(i64 4, ptr %7) #5
  %87 = load ptr, ptr %3, align 8, !tbaa !4
  %88 = getelementptr inbounds nuw %struct.jit_State, ptr %87, i32 0, i32 40
  %89 = getelementptr inbounds [101 x i16], ptr %88, i64 0, i64 56
  %90 = load i16, ptr %89, align 2, !tbaa !12
  %91 = zext i16 %90 to i32
  store i32 %91, ptr %7, align 4, !tbaa !9
  call void @llvm.lifetime.start.p0(i64 4, ptr %8) #5
  %92 = load ptr, ptr %6, align 8, !tbaa !32
  %93 = getelementptr inbounds nuw %struct.anon, ptr %92, i32 0, i32 0
  %94 = load i16, ptr %93, align 8, !tbaa !11
  %95 = zext i16 %94 to i32
  store i32 %95, ptr %8, align 4, !tbaa !9
  %96 = load ptr, ptr %4, align 8, !tbaa !32
  %97 = getelementptr inbounds nuw %struct.anon, ptr %96, i32 0, i32 0
  %98 = load i16, ptr %97, align 8, !tbaa !11
  %99 = zext i16 %98 to i32
  %100 = load i32, ptr %8, align 4, !tbaa !9
  %101 = icmp ugt i32 %99, %100
  br i1 %101, label %102, label %107

102:                                              ; preds = %86
  %103 = load ptr, ptr %4, align 8, !tbaa !32
  %104 = getelementptr inbounds nuw %struct.anon, ptr %103, i32 0, i32 0
  %105 = load i16, ptr %104, align 8, !tbaa !11
  %106 = zext i16 %105 to i32
  store i32 %106, ptr %8, align 4, !tbaa !9
  br label %107

107:                                              ; preds = %102, %86
  br label %108

108:                                              ; preds = %150, %107
  %109 = load i32, ptr %7, align 4, !tbaa !9
  %110 = load i32, ptr %8, align 4, !tbaa !9
  %111 = icmp ugt i32 %109, %110
  br i1 %111, label %112, label %151

112:                                              ; preds = %108
  call void @llvm.lifetime.start.p0(i64 8, ptr %9) #5
  %113 = load ptr, ptr %3, align 8, !tbaa !4
  %114 = getelementptr inbounds nuw %struct.jit_State, ptr %113, i32 0, i32 0
  %115 = getelementptr inbounds nuw %struct.GCtrace, ptr %114, i32 0, i32 7
  %116 = load ptr, ptr %115, align 8, !tbaa !14
  %117 = load i32, ptr %7, align 4, !tbaa !9
  %118 = zext i32 %117 to i64
  %119 = getelementptr inbounds nuw %union.IRIns, ptr %116, i64 %118
  store ptr %119, ptr %9, align 8, !tbaa !32
  %120 = load ptr, ptr %9, align 8, !tbaa !32
  %121 = getelementptr inbounds nuw %struct.anon, ptr %120, i32 0, i32 0
  %122 = load i16, ptr %121, align 8, !tbaa !11
  %123 = zext i16 %122 to i32
  %124 = load ptr, ptr %4, align 8, !tbaa !32
  %125 = getelementptr inbounds nuw %struct.anon, ptr %124, i32 0, i32 0
  %126 = load i16, ptr %125, align 8, !tbaa !11
  %127 = zext i16 %126 to i32
  %128 = icmp eq i32 %123, %127
  br i1 %128, label %129, label %143

129:                                              ; preds = %112
  %130 = load ptr, ptr %9, align 8, !tbaa !32
  %131 = getelementptr inbounds nuw %struct.anon, ptr %130, i32 0, i32 1
  %132 = load i16, ptr %131, align 2, !tbaa !11
  %133 = zext i16 %132 to i32
  %134 = load ptr, ptr %6, align 8, !tbaa !32
  %135 = getelementptr inbounds nuw %struct.anon, ptr %134, i32 0, i32 0
  %136 = load i16, ptr %135, align 8, !tbaa !11
  %137 = zext i16 %136 to i32
  %138 = icmp eq i32 %133, %137
  br i1 %138, label %139, label %143

139:                                              ; preds = %129
  %140 = load ptr, ptr %3, align 8, !tbaa !4
  %141 = load i32, ptr %7, align 4, !tbaa !9
  %142 = call i32 @fwd_ahload(ptr noundef %140, i32 noundef %141)
  store i32 %142, ptr %2, align 4
  store i32 1, ptr %10, align 4
  br label %148

143:                                              ; preds = %129, %112
  %144 = load ptr, ptr %9, align 8, !tbaa !32
  %145 = getelementptr inbounds nuw %struct.anon, ptr %144, i32 0, i32 3
  %146 = load i16, ptr %145, align 2, !tbaa !11
  %147 = zext i16 %146 to i32
  store i32 %147, ptr %7, align 4, !tbaa !9
  store i32 0, ptr %10, align 4
  br label %148

148:                                              ; preds = %143, %139
  call void @llvm.lifetime.end.p0(i64 8, ptr %9) #5
  %149 = load i32, ptr %10, align 4
  switch i32 %149, label %152 [
    i32 0, label %150
  ]

150:                                              ; preds = %148
  br label %108, !llvm.loop !43

151:                                              ; preds = %108
  store i32 0, ptr %10, align 4
  br label %152

152:                                              ; preds = %151, %148
  call void @llvm.lifetime.end.p0(i64 4, ptr %8) #5
  call void @llvm.lifetime.end.p0(i64 4, ptr %7) #5
  %153 = load i32, ptr %10, align 4
  switch i32 %153, label %156 [
    i32 0, label %154
  ]

154:                                              ; preds = %152
  br label %155

155:                                              ; preds = %154, %63, %57, %42
  store i32 0, ptr %10, align 4
  br label %156

156:                                              ; preds = %155, %152
  call void @llvm.lifetime.end.p0(i64 8, ptr %6) #5
  %157 = load i32, ptr %10, align 4
  switch i32 %157, label %160 [
    i32 0, label %158
  ]

158:                                              ; preds = %156
  br label %159

159:                                              ; preds = %158, %36, %1
  store i32 0, ptr %2, align 4
  store i32 1, ptr %10, align 4
  br label %160

160:                                              ; preds = %159, %156
  call void @llvm.lifetime.end.p0(i64 8, ptr %5) #5
  call void @llvm.lifetime.end.p0(i64 8, ptr %4) #5
  %161 = load i32, ptr %2, align 4
  ret i32 %161
}

; Function Attrs: nounwind uwtable
define hidden i32 @lj_opt_fwd_aload(ptr noundef %0) #0 {
  %2 = alloca i32, align 4
  %3 = alloca ptr, align 8
  %4 = alloca i32, align 4
  %5 = alloca i32, align 4
  store ptr %0, ptr %3, align 8, !tbaa !4
  call void @llvm.lifetime.start.p0(i64 4, ptr %4) #5
  %6 = load ptr, ptr %3, align 8, !tbaa !4
  %7 = load ptr, ptr %3, align 8, !tbaa !4
  %8 = getelementptr inbounds nuw %struct.jit_State, ptr %7, i32 0, i32 14
  %9 = getelementptr inbounds nuw %struct.FoldState, ptr %8, i32 0, i32 0
  %10 = getelementptr inbounds nuw %struct.anon, ptr %9, i32 0, i32 0
  %11 = load i16, ptr %10, align 8, !tbaa !11
  %12 = zext i16 %11 to i32
  %13 = call i32 @fwd_ahload(ptr noundef %6, i32 noundef %12)
  store i32 %13, ptr %4, align 4, !tbaa !9
  %14 = icmp ne i32 %13, 0
  br i1 %14, label %19, label %15

15:                                               ; preds = %1
  %16 = load ptr, ptr %3, align 8, !tbaa !4
  %17 = call i32 @fwd_aload_reassoc(ptr noundef %16)
  store i32 %17, ptr %4, align 4, !tbaa !9
  %18 = icmp ne i32 %17, 0
  br i1 %18, label %19, label %21

19:                                               ; preds = %15, %1
  %20 = load i32, ptr %4, align 4, !tbaa !9
  store i32 %20, ptr %2, align 4
  store i32 1, ptr %5, align 4
  br label %24

21:                                               ; preds = %15
  %22 = load ptr, ptr %3, align 8, !tbaa !4
  %23 = call i32 @lj_ir_emit(ptr noundef %22)
  store i32 %23, ptr %2, align 4
  store i32 1, ptr %5, align 4
  br label %24

24:                                               ; preds = %21, %19
  call void @llvm.lifetime.end.p0(i64 4, ptr %4) #5
  %25 = load i32, ptr %2, align 4
  ret i32 %25
}