; Function Attrs: nounwind uwtable
define hidden i32 @lj_opt_fwd_aload(ptr noundef %0) local_unnamed_addr #2 {
  %2 = getelementptr inbounds nuw i8, ptr %0, i64 184
  %3 = load i16, ptr %2, align 8, !tbaa !4
  %4 = zext i16 %3 to i32
  %5 = tail call fastcc i32 @fwd_ahload(ptr noundef %0, i32 noundef %4)
  %.not = icmp eq i32 %5, 0
  br i1 %.not, label %6, label %59

6:                                                ; preds = %1
  %7 = getelementptr inbounds nuw i8, ptr %0, i64 32
  %8 = load ptr, ptr %7, align 8, !tbaa !7
  %9 = load i16, ptr %2, align 8, !tbaa !4
  %10 = zext i16 %9 to i64
  %11 = getelementptr inbounds nuw %union.IRIns, ptr %8, i64 %10
  %12 = getelementptr inbounds nuw i8, ptr %11, i64 2
  %13 = load i16, ptr %12, align 2, !tbaa !4
  %14 = zext i16 %13 to i64
  %15 = getelementptr inbounds nuw %union.IRIns, ptr %8, i64 %14
  %16 = getelementptr inbounds nuw i8, ptr %15, i64 5
  %17 = load i8, ptr %16, align 1, !tbaa !4
  %18 = icmp eq i8 %17, 41
  br i1 %18, label %19, label %fwd_aload_reassoc.exit.thread

19:                                               ; preds = %6
  %20 = getelementptr inbounds nuw i8, ptr %15, i64 2
  %21 = load i16, ptr %20, align 2, !tbaa !4
  %22 = icmp sgt i16 %21, -1
  br i1 %22, label %23, label %fwd_aload_reassoc.exit.thread

23:                                               ; preds = %19
  %24 = load i16, ptr %15, align 8, !tbaa !4
  %25 = zext i16 %24 to i64
  %26 = getelementptr inbounds nuw %union.IRIns, ptr %8, i64 %25
  %27 = getelementptr inbounds nuw i8, ptr %26, i64 5
  %28 = load i8, ptr %27, align 1, !tbaa !4
  %29 = icmp eq i8 %28, 41
  br i1 %29, label %30, label %fwd_aload_reassoc.exit.thread

30:                                               ; preds = %23
  %31 = getelementptr inbounds nuw i8, ptr %26, i64 2
  %32 = load i16, ptr %31, align 2, !tbaa !4
  %33 = icmp sgt i16 %32, -1
  br i1 %33, label %34, label %fwd_aload_reassoc.exit.thread

34:                                               ; preds = %30
  %35 = zext nneg i16 %21 to i64
  %36 = getelementptr inbounds nuw %union.IRIns, ptr %8, i64 %35
  %37 = load i32, ptr %36, align 8, !tbaa !4
  %38 = zext nneg i16 %32 to i64
  %39 = getelementptr inbounds nuw %union.IRIns, ptr %8, i64 %38
  %40 = load i32, ptr %39, align 8, !tbaa !4
  %41 = sub nsw i32 0, %40
  %42 = icmp eq i32 %37, %41
  br i1 %42, label %43, label %fwd_aload_reassoc.exit.thread

43:                                               ; preds = %34
  %44 = getelementptr inbounds nuw i8, ptr %0, i64 514
  %45 = load i16, ptr %26, align 8, !tbaa !4
  %46 = load i16, ptr %11, align 8, !tbaa !4
  %spec.select.i = tail call i16 @llvm.umax.i16(i16 %46, i16 %45)
  %.039.in54.i = load i16, ptr %44, align 2, !tbaa !4
  %.not55.i = icmp ugt i16 %.039.in54.i, %spec.select.i
  br i1 %.not55.i, label %.lr.ph.i, label %fwd_aload_reassoc.exit.thread

.lr.ph.i:                                         ; preds = %43, %55
  %.039.in56.i = phi i16 [ %.039.in.i, %55 ], [ %.039.in54.i, %43 ]
  %47 = zext i16 %.039.in56.i to i64
  %48 = getelementptr inbounds nuw %union.IRIns, ptr %8, i64 %47
  %49 = load i16, ptr %48, align 8, !tbaa !4
  %50 = icmp eq i16 %49, %46
  br i1 %50, label %51, label %55

51:                                               ; preds = %.lr.ph.i
  %52 = getelementptr inbounds nuw i8, ptr %48, i64 2
  %53 = load i16, ptr %52, align 2, !tbaa !4
  %54 = icmp eq i16 %53, %45
  br i1 %54, label %fwd_aload_reassoc.exit, label %55

55:                                               ; preds = %51, %.lr.ph.i
  %56 = getelementptr inbounds nuw i8, ptr %48, i64 6
  %.039.in.i = load i16, ptr %56, align 2, !tbaa !4
  %.not.i = icmp ugt i16 %.039.in.i, %spec.select.i
  br i1 %.not.i, label %.lr.ph.i, label %fwd_aload_reassoc.exit.thread, !llvm.loop !32

fwd_aload_reassoc.exit:                           ; preds = %51
  %.039.le.i = zext i16 %.039.in56.i to i32
  %57 = tail call fastcc i32 @fwd_ahload(ptr noundef nonnull %0, i32 noundef %.039.le.i)
  %.not8 = icmp eq i32 %57, 0
  br i1 %.not8, label %fwd_aload_reassoc.exit.thread, label %59

fwd_aload_reassoc.exit.thread:                    ; preds = %55, %43, %23, %30, %34, %6, %19, %fwd_aload_reassoc.exit
  %58 = tail call i32 @lj_ir_emit(ptr noundef %0) #6
  br label %59

59:                                               ; preds = %1, %fwd_aload_reassoc.exit, %fwd_aload_reassoc.exit.thread
  %.05 = phi i32 [ %58, %fwd_aload_reassoc.exit.thread ], [ %5, %1 ], [ %57, %fwd_aload_reassoc.exit ]
  ret i32 %.05
}